target datalayout = "e-m:e-p270:32:32-p271:32:32-p272:64:64-i64:64-i128:128-f80:128-n8:16:32:64-S128"
target triple = "x86_64-pc-linux-gnu"

%struct.SSL_TEST_EXTRA_CONF = type { %struct.SSL_TEST_CLIENT_CONF, %struct.SSL_TEST_SERVER_CONF, %struct.SSL_TEST_SERVER_CONF }
%struct.SSL_TEST_CLIENT_CONF = type { i32, i32, i32, ptr, ptr, i32, ptr, ptr, ptr, i32, i32 }
%struct.SSL_TEST_SERVER_CONF = type { i32, ptr, ptr, i32, i32, ptr, ptr, i32, ptr }

@.str.14 = private unnamed_addr constant [36 x i8] c"../openssl/test/ssl_test_ctx_test.c\00", align 1
@.str.60 = private unnamed_addr constant [47 x i8] c"clientconf_eq(&extra->client, &extra2->client)\00", align 1
@.str.61 = private unnamed_addr constant [47 x i8] c"serverconf_eq(&extra->server, &extra2->server)\00", align 1
@.str.62 = private unnamed_addr constant [49 x i8] c"serverconf_eq(&extra->server2, &extra2->server2)\00", align 1
@.str.63 = private unnamed_addr constant [23 x i8] c"conf1->verify_callback\00", align 1
@.str.64 = private unnamed_addr constant [23 x i8] c"conf2->verify_callback\00", align 1
@.str.65 = private unnamed_addr constant [18 x i8] c"conf1->servername\00", align 1
@.str.66 = private unnamed_addr constant [18 x i8] c"conf2->servername\00", align 1
@.str.67 = private unnamed_addr constant [21 x i8] c"conf1->npn_protocols\00", align 1
@.str.68 = private unnamed_addr constant [21 x i8] c"conf2->npn_protocols\00", align 1
@.str.69 = private unnamed_addr constant [22 x i8] c"conf1->alpn_protocols\00", align 1
@.str.70 = private unnamed_addr constant [22 x i8] c"conf2->alpn_protocols\00", align 1
@.str.71 = private unnamed_addr constant [21 x i8] c"conf1->ct_validation\00", align 1
@.str.72 = private unnamed_addr constant [21 x i8] c"conf2->ct_validation\00", align 1
@.str.73 = private unnamed_addr constant [29 x i8] c"conf1->max_fragment_len_mode\00", align 1
@.str.74 = private unnamed_addr constant [29 x i8] c"conf2->max_fragment_len_mode\00", align 1

; Function Attrs: nounwind uwtable
define internal i32 @clientconf_eq(ptr noundef %0, ptr noundef %1) #0 {
  %3 = alloca i32, align 4
  %4 = alloca ptr, align 8
  %5 = alloca ptr, align 8
  store ptr %0, ptr %4, align 8, !tbaa !45
  store ptr %1, ptr %5, align 8, !tbaa !45
  %6 = load ptr, ptr %4, align 8, !tbaa !45
  %7 = getelementptr inbounds nuw %struct.SSL_TEST_CLIENT_CONF, ptr %6, i32 0, i32 0
  %8 = load i32, ptr %7, align 8, !tbaa !52
  %9 = load ptr, ptr %5, align 8, !tbaa !45
  %10 = getelementptr inbounds nuw %struct.SSL_TEST_CLIENT_CONF, ptr %9, i32 0, i32 0
  %11 = load i32, ptr %10, align 8, !tbaa !52
  %12 = call i32 @test_int_eq(ptr noundef @.str.14, i32 noundef 39, ptr noundef @.str.63, ptr noundef @.str.64, i32 noundef %8, i32 noundef %11)
  %13 = icmp ne i32 %12, 0
  br i1 %13, label %14, label %59

14:                                               ; preds = %2
  %15 = load ptr, ptr %4, align 8, !tbaa !45
  %16 = getelementptr inbounds nuw %struct.SSL_TEST_CLIENT_CONF, ptr %15, i32 0, i32 1
  %17 = load i32, ptr %16, align 4, !tbaa !53
  %18 = load ptr, ptr %5, align 8, !tbaa !45
  %19 = getelementptr inbounds nuw %struct.SSL_TEST_CLIENT_CONF, ptr %18, i32 0, i32 1
  %20 = load i32, ptr %19, align 4, !tbaa !53
  %21 = call i32 @test_int_eq(ptr noundef @.str.14, i32 noundef 40, ptr noundef @.str.65, ptr noundef @.str.66, i32 noundef %17, i32 noundef %20)
  %22 = icmp ne i32 %21, 0
  br i1 %22, label %23, label %59

23:                                               ; preds = %14
  %24 = load ptr, ptr %4, align 8, !tbaa !45
  %25 = getelementptr inbounds nuw %struct.SSL_TEST_CLIENT_CONF, ptr %24, i32 0, i32 3
  %26 = load ptr, ptr %25, align 8, !tbaa !54
  %27 = load ptr, ptr %5, align 8, !tbaa !45
  %28 = getelementptr inbounds nuw %struct.SSL_TEST_CLIENT_CONF, ptr %27, i32 0, i32 3
  %29 = load ptr, ptr %28, align 8, !tbaa !54
  %30 = call i32 @test_str_eq(ptr noundef @.str.14, i32 noundef 41, ptr noundef @.str.67, ptr noundef @.str.68, ptr noundef %26, ptr noundef %29)
  %31 = icmp ne i32 %30, 0
  br i1 %31, label %32, label %59

32:                                               ; preds = %23
  %33 = load ptr, ptr %4, align 8, !tbaa !45
  %34 = getelementptr inbounds nuw %struct.SSL_TEST_CLIENT_CONF, ptr %33, i32 0, i32 4
  %35 = load ptr, ptr %34, align 8, !tbaa !55
  %36 = load ptr, ptr %5, align 8, !tbaa !45
  %37 = getelementptr inbounds nuw %struct.SSL_TEST_CLIENT_CONF, ptr %36, i32 0, i32 4
  %38 = load ptr, ptr %37, align 8, !tbaa !55
  %39 = call i32 @test_str_eq(ptr noundef @.str.14, i32 noundef 42, ptr noundef @.str.69, ptr noundef @.str.70, ptr noundef %35, ptr noundef %38)
  %40 = icmp ne i32 %39, 0
  br i1 %40, label %41, label %59

41:                                               ; preds = %32
  %42 = load ptr, ptr %4, align 8, !tbaa !45
  %43 = getelementptr inbounds nuw %struct.SSL_TEST_CLIENT_CONF, ptr %42, i32 0, i32 5
  %44 = load i32, ptr %43, align 8, !tbaa !56
  %45 = load ptr, ptr %5, align 8, !tbaa !45
  %46 = getelementptr inbounds nuw %struct.SSL_TEST_CLIENT_CONF, ptr %45, i32 0, i32 5
  %47 = load i32, ptr %46, align 8, !tbaa !56
  %48 = call i32 @test_int_eq(ptr noundef @.str.14, i32 noundef 43, ptr noundef @.str.71, ptr noundef @.str.72, i32 noundef %44, i32 noundef %47)
  %49 = icmp ne i32 %48, 0
  br i1 %49, label %50, label %59

50:                                               ; preds = %41
  %51 = load ptr, ptr %4, align 8, !tbaa !45
  %52 = getelementptr inbounds nuw %struct.SSL_TEST_CLIENT_CONF, ptr %51, i32 0, i32 2
  %53 = load i32, ptr %52, align 8, !tbaa !57
  %54 = load ptr, ptr %5, align 8, !tbaa !45
  %55 = getelementptr inbounds nuw %struct.SSL_TEST_CLIENT_CONF, ptr %54, i32 0, i32 2
  %56 = load i32, ptr %55, align 8, !tbaa !57
  %57 = call i32 @test_int_eq(ptr noundef @.str.14, i32 noundef 45, ptr noundef @.str.73, ptr noundef @.str.74, i32 noundef %53, i32 noundef %56)
  %58 = icmp ne i32 %57, 0
  br i1 %58, label %60, label %59

59:                                               ; preds = %50, %41, %32, %23, %14, %2
  store i32 0, ptr %3, align 4
  br label %61

60:                                               ; preds = %50
  store i32 1, ptr %3, align 4
  br label %61

61:                                               ; preds = %60, %59
  %62 = load i32, ptr %3, align 4
  ret i32 %62
}

; Function Attrs: nounwind uwtable
define internal i32 @extraconf_eq(ptr noundef %0, ptr noundef %1) #0 {
  %3 = alloca i32, align 4
  %4 = alloca ptr, align 8
  %5 = alloca ptr, align 8
  store ptr %0, ptr %4, align 8, !tbaa !45
  store ptr %1, ptr %5, align 8, !tbaa !45
  %6 = load ptr, ptr %4, align 8, !tbaa !45
  %7 = getelementptr inbounds nuw %struct.SSL_TEST_EXTRA_CONF, ptr %6, i32 0, i32 0
  %8 = load ptr, ptr %5, align 8, !tbaa !45
  %9 = getelementptr inbounds nuw %struct.SSL_TEST_EXTRA_CONF, ptr %8, i32 0, i32 0
  %10 = call i32 @clientconf_eq(ptr noundef %7, ptr noundef %9)
  %11 = icmp ne i32 %10, 0
  %12 = zext i1 %11 to i32
  %13 = call i32 @test_true(ptr noundef @.str.14, i32 noundef 68, ptr noundef @.str.60, i32 noundef %12)
  %14 = icmp ne i32 %13, 0
  br i1 %14, label %15, label %35

15:                                               ; preds = %2
  %16 = load ptr, ptr %4, align 8, !tbaa !45
  %17 = getelementptr inbounds nuw %struct.SSL_TEST_EXTRA_CONF, ptr %16, i32 0, i32 1
  %18 = load ptr, ptr %5, align 8, !tbaa !45
  %19 = getelementptr inbounds nuw %struct.SSL_TEST_EXTRA_CONF, ptr %18, i32 0, i32 1
  %20 = call i32 @serverconf_eq(ptr noundef %17, ptr noundef %19)
  %21 = icmp ne i32 %20, 0
  %22 = zext i1 %21 to i32
  %23 = call i32 @test_true(ptr noundef @.str.14, i32 noundef 69, ptr noundef @.str.61, i32 noundef %22)
  %24 = icmp ne i32 %23, 0
  br i1 %24, label %25, label %35

25:                                               ; preds = %15
  %26 = load ptr, ptr %4, align 8, !tbaa !45
  %27 = getelementptr inbounds nuw %struct.SSL_TEST_EXTRA_CONF, ptr %26, i32 0, i32 2
  %28 = load ptr, ptr %5, align 8, !tbaa !45
  %29 = getelementptr inbounds nuw %struct.SSL_TEST_EXTRA_CONF, ptr %28, i32 0, i32 2
  %30 = call i32 @serverconf_eq(ptr noundef %27, ptr noundef %29)
  %31 = icmp ne i32 %30, 0
  %32 = zext i1 %31 to i32
  %33 = call i32 @test_true(ptr noundef @.str.14, i32 noundef 70, ptr noundef @.str.62, i32 noundef %32)
  %34 = icmp ne i32 %33, 0
  br i1 %34, label %36, label %35

35:                                               ; preds = %25, %15, %2
  store i32 0, ptr %3, align 4
  br label %37

36:                                               ; preds = %25
  store i32 1, ptr %3, align 4
  br label %37

37:                                               ; preds = %36, %35
  %38 = load i32, ptr %3, align 4
  ret i32 %38
}