; Function Attrs: nounwind uwtable
define internal fastcc range(i32 0, 2) i32 @extraconf_eq(ptr noundef readonly captures(none) %0, ptr noundef readonly captures(none) %1) unnamed_addr #1 {
  %3 = load i32, ptr %0, align 8, !tbaa !48
  %4 = load i32, ptr %1, align 8, !tbaa !48
  %5 = tail call i32 @test_int_eq(ptr noundef nonnull @.str.14, i32 noundef 39, ptr noundef nonnull @.str.63, ptr noundef nonnull @.str.64, i32 noundef %3, i32 noundef %4) #3
  %.not.i = icmp eq i32 %5, 0
  br i1 %.not.i, label %clientconf_eq.exit, label %6

6:                                                ; preds = %2
  %7 = getelementptr inbounds nuw i8, ptr %0, i64 4
  %8 = load i32, ptr %7, align 4, !tbaa !49
  %9 = getelementptr inbounds nuw i8, ptr %1, i64 4
  %10 = load i32, ptr %9, align 4, !tbaa !49
  %11 = tail call i32 @test_int_eq(ptr noundef nonnull @.str.14, i32 noundef 40, ptr noundef nonnull @.str.65, ptr noundef nonnull @.str.66, i32 noundef %8, i32 noundef %10) #3
  %.not12.i = icmp eq i32 %11, 0
  br i1 %.not12.i, label %clientconf_eq.exit, label %12

12:                                               ; preds = %6
  %13 = getelementptr inbounds nuw i8, ptr %0, i64 16
  %14 = load ptr, ptr %13, align 8, !tbaa !50
  %15 = getelementptr inbounds nuw i8, ptr %1, i64 16
  %16 = load ptr, ptr %15, align 8, !tbaa !50
  %17 = tail call i32 @test_str_eq(ptr noundef nonnull @.str.14, i32 noundef 41, ptr noundef nonnull @.str.67, ptr noundef nonnull @.str.68, ptr noundef %14, ptr noundef %16) #3
  %.not13.i = icmp eq i32 %17, 0
  br i1 %.not13.i, label %clientconf_eq.exit, label %18

18:                                               ; preds = %12
  %19 = getelementptr inbounds nuw i8, ptr %0, i64 24
  %20 = load ptr, ptr %19, align 8, !tbaa !51
  %21 = getelementptr inbounds nuw i8, ptr %1, i64 24
  %22 = load ptr, ptr %21, align 8, !tbaa !51
  %23 = tail call i32 @test_str_eq(ptr noundef nonnull @.str.14, i32 noundef 42, ptr noundef nonnull @.str.69, ptr noundef nonnull @.str.70, ptr noundef %20, ptr noundef %22) #3
  %.not14.i = icmp eq i32 %23, 0
  br i1 %.not14.i, label %clientconf_eq.exit, label %24

24:                                               ; preds = %18
  %25 = getelementptr inbounds nuw i8, ptr %0, i64 32
  %26 = load i32, ptr %25, align 8, !tbaa !52
  %27 = getelementptr inbounds nuw i8, ptr %1, i64 32
  %28 = load i32, ptr %27, align 8, !tbaa !52
  %29 = tail call i32 @test_int_eq(ptr noundef nonnull @.str.14, i32 noundef 43, ptr noundef nonnull @.str.71, ptr noundef nonnull @.str.72, i32 noundef %26, i32 noundef %28) #3
  %.not15.i = icmp eq i32 %29, 0
  br i1 %.not15.i, label %clientconf_eq.exit, label %30

30:                                               ; preds = %24
  %31 = getelementptr inbounds nuw i8, ptr %0, i64 8
  %32 = load i32, ptr %31, align 8, !tbaa !53
  %33 = getelementptr inbounds nuw i8, ptr %1, i64 8
  %34 = load i32, ptr %33, align 8, !tbaa !53
  %35 = tail call i32 @test_int_eq(ptr noundef nonnull @.str.14, i32 noundef 45, ptr noundef nonnull @.str.73, ptr noundef nonnull @.str.74, i32 noundef %32, i32 noundef %34) #3
  %.not16.i = icmp ne i32 %35, 0
  %spec.select.i = zext i1 %.not16.i to i32
  br label %clientconf_eq.exit

clientconf_eq.exit:                               ; preds = %2, %6, %12, %18, %24, %30
  %.0.i = phi i32 [ 0, %24 ], [ 0, %18 ], [ 0, %12 ], [ 0, %6 ], [ 0, %2 ], [ %spec.select.i, %30 ]
  %36 = tail call i32 @test_true(ptr noundef nonnull @.str.14, i32 noundef 68, ptr noundef nonnull @.str.60, i32 noundef %.0.i) #3
  %.not = icmp eq i32 %36, 0
  br i1 %.not, label %47, label %37

37:                                               ; preds = %clientconf_eq.exit
  %38 = getelementptr inbounds nuw i8, ptr %0, i64 72
  %39 = getelementptr inbounds nuw i8, ptr %1, i64 72
  %40 = tail call fastcc i32 @serverconf_eq(ptr noundef nonnull %38, ptr noundef nonnull %39)
  %41 = tail call i32 @test_true(ptr noundef nonnull @.str.14, i32 noundef 69, ptr noundef nonnull @.str.61, i32 noundef %40) #3
  %.not6 = icmp eq i32 %41, 0
  br i1 %.not6, label %47, label %42

42:                                               ; preds = %37
  %43 = getelementptr inbounds nuw i8, ptr %0, i64 136
  %44 = getelementptr inbounds nuw i8, ptr %1, i64 136
  %45 = tail call fastcc i32 @serverconf_eq(ptr noundef nonnull %43, ptr noundef nonnull %44)
  %46 = tail call i32 @test_true(ptr noundef nonnull @.str.14, i32 noundef 70, ptr noundef nonnull @.str.62, i32 noundef %45) #3
  %.not7 = icmp ne i32 %46, 0
  %spec.select = zext i1 %.not7 to i32
  br label %47

47:                                               ; preds = %42, %clientconf_eq.exit, %37
  %.0 = phi i32 [ 0, %37 ], [ 0, %clientconf_eq.exit ], [ %spec.select, %42 ]
  ret i32 %.0
}